target datalayout = "e-m:e-p270:32:32-p271:32:32-p272:64:64-i64:64-i128:128-f80:128-n8:16:32:64-S128"
target triple = "x86_64-pc-linux-gnu"

%struct.OSSL_HPKE_SUITE = type { i16, i16, i16 }

@verbose = internal global i32 0, align 4
@.str.31 = private unnamed_addr constant [28 x i8] c"../openssl/test/hpke_test.c\00", align 1
@kem_str_list = internal global [15 x ptr] [ptr @.str.106, ptr @.str.107, ptr @.str.108, ptr @.str.109, ptr @.str.110, ptr @.str.111, ptr @.str.112, ptr @.str.113, ptr @.str.114, ptr @.str.115, ptr @.str.116, ptr @.str.117, ptr @.str.118, ptr @.str.119, ptr @.str.120], align 16
@kdf_str_list = internal global [12 x ptr] [ptr @.str.121, ptr @.str.122, ptr @.str.123, ptr @.str.124, ptr @.str.125, ptr @.str.126, ptr @.str.127, ptr @.str.128, ptr @.str.129, ptr @.str.130, ptr @.str.131, ptr @.str.132], align 16
@aead_str_list = internal global [15 x ptr] [ptr @.str.133, ptr @.str.134, ptr @.str.135, ptr @.str.136, ptr @.str.124, ptr @.str.125, ptr @.str.126, ptr @.str.127, ptr @.str.128, ptr @.str.129, ptr @.str.130, ptr @.str.131, ptr @.str.132, ptr @.str.137, ptr @.str.138], align 16
@.str.139 = private unnamed_addr constant [9 x i8] c"%s,%s,%s\00", align 1
@.str.140 = private unnamed_addr constant [36 x i8] c"OSSL_HPKE_str2suite(sstr, &stirred)\00", align 1
@.str.141 = private unnamed_addr constant [34 x i8] c"Unexpected str2suite fail for :%s\00", align 1
@.str.142 = private unnamed_addr constant [54 x i8] c"OSSL_HPKE_str2suite(bogus_suite_strs[sind], &stirred)\00", align 1
@.str.143 = private unnamed_addr constant [49 x i8] c"OSSL_HPKE_str2suite didn't fail for bogus[%d]:%s\00", align 1
@.str.144 = private unnamed_addr constant [34 x i8] c"OSSL_HPKE_str2suite(\22\22, &stirred)\00", align 1
@.str.145 = private unnamed_addr constant [1 x i8] zeroinitializer, align 1
@.str.146 = private unnamed_addr constant [36 x i8] c"OSSL_HPKE_str2suite(NULL, &stirred)\00", align 1
@.str.147 = private unnamed_addr constant [30 x i8] c"OSSL_HPKE_str2suite(\22\22, NULL)\00", align 1
@.str.148 = private unnamed_addr constant [37 x i8] c"OSSL_HPKE_str2suite(giant, &stirred)\00", align 1

; Function Attrs: nounwind uwtable
define internal i32 @test_hpke_suite_strs() #0 {
  %1 = alloca i32, align 4
  %2 = alloca i32, align 4
  %3 = alloca i32, align 4
  %4 = alloca i32, align 4
  %5 = alloca i32, align 4
  %6 = alloca [128 x i8], align 16
  %7 = alloca %struct.OSSL_HPKE_SUITE, align 2
  %8 = alloca [2048 x i8], align 16
  call void @llvm.lifetime.start.p0(i64 4, ptr %1) #7
  store i32 1, ptr %1, align 4, !tbaa !4
  call void @llvm.lifetime.start.p0(i64 4, ptr %2) #7
  store i32 0, ptr %2, align 4, !tbaa !4
  call void @llvm.lifetime.start.p0(i64 4, ptr %3) #7
  store i32 0, ptr %3, align 4, !tbaa !4
  call void @llvm.lifetime.start.p0(i64 4, ptr %4) #7
  store i32 0, ptr %4, align 4, !tbaa !4
  call void @llvm.lifetime.start.p0(i64 4, ptr %5) #7
  store i32 0, ptr %5, align 4, !tbaa !4
  call void @llvm.lifetime.start.p0(i64 128, ptr %6) #7
  call void @llvm.lifetime.start.p0(i64 6, ptr %7) #7
  call void @llvm.lifetime.start.p0(i64 2048, ptr %8) #7
  store i32 0, ptr %2, align 4, !tbaa !4
  br label %9

9:                                                ; preds = %62, %0
  %10 = load i32, ptr %2, align 4, !tbaa !4
  %11 = sext i32 %10 to i64
  %12 = icmp ne i64 %11, 15
  br i1 %12, label %13, label %65

13:                                               ; preds = %9
  store i32 0, ptr %3, align 4, !tbaa !4
  br label %14

14:                                               ; preds = %58, %13
  %15 = load i32, ptr %3, align 4, !tbaa !4
  %16 = sext i32 %15 to i64
  %17 = icmp ne i64 %16, 12
  br i1 %17, label %18, label %61

18:                                               ; preds = %14
  store i32 0, ptr %4, align 4, !tbaa !4
  br label %19

19:                                               ; preds = %54, %18
  %20 = load i32, ptr %4, align 4, !tbaa !4
  %21 = sext i32 %20 to i64
  %22 = icmp ne i64 %21, 15
  br i1 %22, label %23, label %57

23:                                               ; preds = %19
  %24 = getelementptr inbounds [128 x i8], ptr %6, i64 0, i64 0
  %25 = load i32, ptr %2, align 4, !tbaa !4
  %26 = sext i32 %25 to i64
  %27 = getelementptr inbounds [15 x ptr], ptr @kem_str_list, i64 0, i64 %26
  %28 = load ptr, ptr %27, align 8, !tbaa !17
  %29 = load i32, ptr %3, align 4, !tbaa !4
  %30 = sext i32 %29 to i64
  %31 = getelementptr inbounds [12 x ptr], ptr @kdf_str_list, i64 0, i64 %30
  %32 = load ptr, ptr %31, align 8, !tbaa !17
  %33 = load i32, ptr %4, align 4, !tbaa !4
  %34 = sext i32 %33 to i64
  %35 = getelementptr inbounds [15 x ptr], ptr @aead_str_list, i64 0, i64 %34
  %36 = load ptr, ptr %35, align 8, !tbaa !17
  %37 = call i32 (ptr, i64, ptr, ...) @BIO_snprintf(ptr noundef %24, i64 noundef 128, ptr noundef @.str.139, ptr noundef %28, ptr noundef %32, ptr noundef %36)
  %38 = getelementptr inbounds [128 x i8], ptr %6, i64 0, i64 0
  %39 = call i32 @OSSL_HPKE_str2suite(ptr noundef %38, ptr noundef %7)
  %40 = icmp ne i32 %39, 0
  %41 = zext i1 %40 to i32
  %42 = call i32 @test_true(ptr noundef @.str.31, i32 noundef 1219, ptr noundef @.str.140, i32 noundef %41)
  %43 = icmp ne i32 %42, 1
  br i1 %43, label %44, label %53

44:                                               ; preds = %23
  %45 = load i32, ptr @verbose, align 4, !tbaa !4
  %46 = icmp ne i32 %45, 0
  br i1 %46, label %47, label %52

47:                                               ; preds = %44
  %48 = load i32, ptr %5, align 4, !tbaa !4
  %49 = sext i32 %48 to i64
  %50 = getelementptr inbounds [35 x ptr], ptr @bogus_suite_strs, i64 0, i64 %49
  %51 = load ptr, ptr %50, align 8, !tbaa !17
  call void (ptr, ...) @test_note(ptr noundef @.str.141, ptr noundef %51)
  br label %52

52:                                               ; preds = %47, %44
  store i32 0, ptr %1, align 4, !tbaa !4
  br label %53

53:                                               ; preds = %52, %23
  br label %54

54:                                               ; preds = %53
  %55 = load i32, ptr %4, align 4, !tbaa !4
  %56 = add nsw i32 %55, 1
  store i32 %56, ptr %4, align 4, !tbaa !4
  br label %19, !llvm.loop !32

57:                                               ; preds = %19
  br label %58

58:                                               ; preds = %57
  %59 = load i32, ptr %3, align 4, !tbaa !4
  %60 = add nsw i32 %59, 1
  store i32 %60, ptr %3, align 4, !tbaa !4
  br label %14, !llvm.loop !33

61:                                               ; preds = %14
  br label %62

62:                                               ; preds = %61
  %63 = load i32, ptr %2, align 4, !tbaa !4
  %64 = add nsw i32 %63, 1
  store i32 %64, ptr %2, align 4, !tbaa !4
  br label %9, !llvm.loop !34

65:                                               ; preds = %9
  store i32 0, ptr %5, align 4, !tbaa !4
  br label %66

66:                                               ; preds = %91, %65
  %67 = load i32, ptr %5, align 4, !tbaa !4
  %68 = sext i32 %67 to i64
  %69 = icmp ne i64 %68, 35
  br i1 %69, label %70, label %94

70:                                               ; preds = %66
  %71 = load i32, ptr %5, align 4, !tbaa !4
  %72 = sext i32 %71 to i64
  %73 = getelementptr inbounds [35 x ptr], ptr @bogus_suite_strs, i64 0, i64 %72
  %74 = load ptr, ptr %73, align 8, !tbaa !17
  %75 = call i32 @OSSL_HPKE_str2suite(ptr noundef %74, ptr noundef %7)
  %76 = icmp ne i32 %75, 0
  %77 = zext i1 %76 to i32
  %78 = call i32 @test_false(ptr noundef @.str.31, i32 noundef 1230, ptr noundef @.str.142, i32 noundef %77)
  %79 = icmp ne i32 %78, 1
  br i1 %79, label %80, label %90

80:                                               ; preds = %70
  %81 = load i32, ptr @verbose, align 4, !tbaa !4
  %82 = icmp ne i32 %81, 0
  br i1 %82, label %83, label %89

83:                                               ; preds = %80
  %84 = load i32, ptr %5, align 4, !tbaa !4
  %85 = load i32, ptr %5, align 4, !tbaa !4
  %86 = sext i32 %85 to i64
  %87 = getelementptr inbounds [35 x ptr], ptr @bogus_suite_strs, i64 0, i64 %86
  %88 = load ptr, ptr %87, align 8, !tbaa !17
  call void (ptr, ...) @test_note(ptr noundef @.str.143, i32 noundef %84, ptr noundef %88)
  br label %89

89:                                               ; preds = %83, %80
  store i32 0, ptr %1, align 4, !tbaa !4
  br label %90

90:                                               ; preds = %89, %70
  br label %91

91:                                               ; preds = %90
  %92 = load i32, ptr %5, align 4, !tbaa !4
  %93 = add nsw i32 %92, 1
  store i32 %93, ptr %5, align 4, !tbaa !4
  br label %66, !llvm.loop !35

94:                                               ; preds = %66
  %95 = call i32 @OSSL_HPKE_str2suite(ptr noundef @.str.145, ptr noundef %7)
  %96 = icmp ne i32 %95, 0
  %97 = zext i1 %96 to i32
  %98 = call i32 @test_false(ptr noundef @.str.31, i32 noundef 1238, ptr noundef @.str.144, i32 noundef %97)
  %99 = icmp ne i32 %98, 0
  br i1 %99, label %101, label %100

100:                                              ; preds = %94
  store i32 0, ptr %1, align 4, !tbaa !4
  br label %101

101:                                              ; preds = %100, %94
  %102 = call i32 @OSSL_HPKE_str2suite(ptr noundef null, ptr noundef %7)
  %103 = icmp ne i32 %102, 0
  %104 = zext i1 %103 to i32
  %105 = call i32 @test_false(ptr noundef @.str.31, i32 noundef 1240, ptr noundef @.str.146, i32 noundef %104)
  %106 = icmp ne i32 %105, 0
  br i1 %106, label %108, label %107

107:                                              ; preds = %101
  store i32 0, ptr %1, align 4, !tbaa !4
  br label %108

108:                                              ; preds = %107, %101
  %109 = call i32 @OSSL_HPKE_str2suite(ptr noundef @.str.145, ptr noundef null)
  %110 = icmp ne i32 %109, 0
  %111 = zext i1 %110 to i32
  %112 = call i32 @test_false(ptr noundef @.str.31, i32 noundef 1242, ptr noundef @.str.147, i32 noundef %111)
  %113 = icmp ne i32 %112, 0
  br i1 %113, label %115, label %114

114:                                              ; preds = %108
  store i32 0, ptr %1, align 4, !tbaa !4
  br label %115

115:                                              ; preds = %114, %108
  %116 = getelementptr inbounds [2048 x i8], ptr %8, i64 0, i64 0
  call void @llvm.memset.p0.i64(ptr align 16 %116, i8 65, i64 2047, i1 false)
  %117 = getelementptr inbounds nuw [2048 x i8], ptr %8, i64 0, i64 2047
  store i8 0, ptr %117, align 1, !tbaa !21
  %118 = getelementptr inbounds [2048 x i8], ptr %8, i64 0, i64 0
  %119 = call i32 @OSSL_HPKE_str2suite(ptr noundef %118, ptr noundef %7)
  %120 = icmp ne i32 %119, 0
  %121 = zext i1 %120 to i32
  %122 = call i32 @test_false(ptr noundef @.str.31, i32 noundef 1246, ptr noundef @.str.148, i32 noundef %121)
  %123 = icmp ne i32 %122, 0
  br i1 %123, label %125, label %124

124:                                              ; preds = %115
  store i32 0, ptr %1, align 4, !tbaa !4
  br label %125

125:                                              ; preds = %124, %115
  %126 = load i32, ptr %1, align 4, !tbaa !4
  call void @llvm.lifetime.end.p0(i64 2048, ptr %8) #7
  call void @llvm.lifetime.end.p0(i64 6, ptr %7) #7
  call void @llvm.lifetime.end.p0(i64 128, ptr %6) #7
  call void @llvm.lifetime.end.p0(i64 4, ptr %5) #7
  call void @llvm.lifetime.end.p0(i64 4, ptr %4) #7
  call void @llvm.lifetime.end.p0(i64 4, ptr %3) #7
  call void @llvm.lifetime.end.p0(i64 4, ptr %2) #7
  call void @llvm.lifetime.end.p0(i64 4, ptr %1) #7
  ret i32 %126
}