; Function Attrs: nounwind uwtable
define internal range(i32 0, 2) i32 @test_hpke_suite_strs() #1 {
  %1 = alloca [128 x i8], align 16
  %2 = alloca %struct.OSSL_HPKE_SUITE, align 2
  %3 = alloca [2048 x i8], align 16
  call void @llvm.lifetime.start.p0(i64 128, ptr nonnull %1) #7
  call void @llvm.lifetime.start.p0(i64 6, ptr nonnull %2) #7
  call void @llvm.lifetime.start.p0(i64 2048, ptr nonnull %3) #7
  br label %.preheader35

.preheader35:                                     ; preds = %0, %20
  %indvars.iv48 = phi i64 [ 0, %0 ], [ %indvars.iv.next49, %20 ]
  %.01940 = phi i32 [ 1, %0 ], [ %.3, %20 ]
  %4 = getelementptr inbounds nuw [15 x ptr], ptr @kem_str_list, i64 0, i64 %indvars.iv48
  %5 = load ptr, ptr %4, align 8, !tbaa !20
  br label %.preheader34

.preheader34:                                     ; preds = %.preheader35, %19
  %indvars.iv45 = phi i64 [ 0, %.preheader35 ], [ %indvars.iv.next46, %19 ]
  %.138 = phi i32 [ %.01940, %.preheader35 ], [ %.3, %19 ]
  %6 = getelementptr inbounds nuw [12 x ptr], ptr @kdf_str_list, i64 0, i64 %indvars.iv45
  %7 = load ptr, ptr %6, align 8, !tbaa !20
  br label %8

8:                                                ; preds = %.preheader34, %18
  %indvars.iv = phi i64 [ 0, %.preheader34 ], [ %indvars.iv.next, %18 ]
  %.236 = phi i32 [ %.138, %.preheader34 ], [ %.3, %18 ]
  %9 = getelementptr inbounds nuw [15 x ptr], ptr @aead_str_list, i64 0, i64 %indvars.iv
  %10 = load ptr, ptr %9, align 8, !tbaa !20
  %11 = call i32 (ptr, i64, ptr, ...) @BIO_snprintf(ptr noundef nonnull %1, i64 noundef 128, ptr noundef nonnull @.str.139, ptr noundef %5, ptr noundef %7, ptr noundef %10) #7
  %12 = call i32 @OSSL_HPKE_str2suite(ptr noundef nonnull %1, ptr noundef nonnull %2) #7
  %13 = icmp ne i32 %12, 0
  %14 = zext i1 %13 to i32
  %15 = call i32 @test_true(ptr noundef nonnull @.str.31, i32 noundef 1219, ptr noundef nonnull @.str.140, i32 noundef %14) #7
  %.not33 = icmp eq i32 %15, 1
  br i1 %.not33, label %18, label %16

16:                                               ; preds = %8
  %.b24 = load i1, ptr @verbose, align 4
  br i1 %.b24, label %17, label %18

17:                                               ; preds = %16
  call void (ptr, ...) @test_note(ptr noundef nonnull @.str.141, ptr noundef nonnull @.str.149) #7
  br label %18

18:                                               ; preds = %16, %17, %8
  %.3 = phi i32 [ %.236, %8 ], [ 0, %17 ], [ 0, %16 ]
  %indvars.iv.next = add nuw nsw i64 %indvars.iv, 1
  %.not32 = icmp eq i64 %indvars.iv.next, 15
  br i1 %.not32, label %19, label %8, !llvm.loop !26

19:                                               ; preds = %18
  %indvars.iv.next46 = add nuw nsw i64 %indvars.iv45, 1
  %.not31 = icmp eq i64 %indvars.iv.next46, 12
  br i1 %.not31, label %20, label %.preheader34, !llvm.loop !27

20:                                               ; preds = %19
  %indvars.iv.next49 = add nuw nsw i64 %indvars.iv48, 1
  %.not = icmp eq i64 %indvars.iv.next49, 15
  br i1 %.not, label %.preheader, label %.preheader35, !llvm.loop !28

.preheader:                                       ; preds = %20, %30
  %indvars.iv51 = phi i64 [ %indvars.iv.next52, %30 ], [ 0, %20 ]
  %.442 = phi i32 [ %.5, %30 ], [ %.3, %20 ]
  %21 = getelementptr inbounds nuw [35 x ptr], ptr @bogus_suite_strs, i64 0, i64 %indvars.iv51
  %22 = load ptr, ptr %21, align 8, !tbaa !20
  %23 = call i32 @OSSL_HPKE_str2suite(ptr noundef %22, ptr noundef nonnull %2) #7
  %24 = icmp ne i32 %23, 0
  %25 = zext i1 %24 to i32
  %26 = call i32 @test_false(ptr noundef nonnull @.str.31, i32 noundef 1230, ptr noundef nonnull @.str.142, i32 noundef %25) #7
  %.not30 = icmp eq i32 %26, 1
  br i1 %.not30, label %30, label %27

27:                                               ; preds = %.preheader
  %.b = load i1, ptr @verbose, align 4
  br i1 %.b, label %28, label %30

28:                                               ; preds = %27
  %29 = trunc nuw nsw i64 %indvars.iv51 to i32
  call void (ptr, ...) @test_note(ptr noundef nonnull @.str.143, i32 noundef %29, ptr noundef %22) #7
  br label %30

30:                                               ; preds = %27, %28, %.preheader
  %.5 = phi i32 [ %.442, %.preheader ], [ 0, %28 ], [ 0, %27 ]
  %indvars.iv.next52 = add nuw nsw i64 %indvars.iv51, 1
  %.not25 = icmp eq i64 %indvars.iv.next52, 35
  br i1 %.not25, label %31, label %.preheader, !llvm.loop !29

31:                                               ; preds = %30
  %32 = call i32 @OSSL_HPKE_str2suite(ptr noundef nonnull @.str.145, ptr noundef nonnull %2) #7
  %33 = icmp ne i32 %32, 0
  %34 = zext i1 %33 to i32
  %35 = call i32 @test_false(ptr noundef nonnull @.str.31, i32 noundef 1238, ptr noundef nonnull @.str.144, i32 noundef %34) #7
  %.not26 = icmp eq i32 %35, 0
  %36 = call i32 @OSSL_HPKE_str2suite(ptr noundef null, ptr noundef nonnull %2) #7
  %37 = icmp ne i32 %36, 0
  %38 = zext i1 %37 to i32
  %39 = call i32 @test_false(ptr noundef nonnull @.str.31, i32 noundef 1240, ptr noundef nonnull @.str.146, i32 noundef %38) #7
  %.not27 = icmp eq i32 %39, 0
  %40 = call i32 @OSSL_HPKE_str2suite(ptr noundef nonnull @.str.145, ptr noundef null) #7
  %41 = icmp ne i32 %40, 0
  %42 = zext i1 %41 to i32
  %43 = call i32 @test_false(ptr noundef nonnull @.str.31, i32 noundef 1242, ptr noundef nonnull @.str.147, i32 noundef %42) #7
  %.not28 = icmp eq i32 %43, 0
  call void @llvm.memset.p0.i64(ptr noundef nonnull align 16 dereferenceable(2047) %3, i8 65, i64 2047, i1 false)
  %44 = getelementptr inbounds nuw i8, ptr %3, i64 2047
  store i8 0, ptr %44, align 1, !tbaa !17
  %45 = call i32 @OSSL_HPKE_str2suite(ptr noundef nonnull %3, ptr noundef nonnull %2) #7
  %46 = icmp ne i32 %45, 0
  %47 = zext i1 %46 to i32
  %48 = call i32 @test_false(ptr noundef nonnull @.str.31, i32 noundef 1246, ptr noundef nonnull @.str.148, i32 noundef %47) #7
  %.not29 = icmp eq i32 %48, 0
  %49 = select i1 %.not29, i1 true, i1 %.not28
  %50 = select i1 %49, i1 true, i1 %.not27
  %51 = select i1 %50, i1 true, i1 %.not26
  %.9 = select i1 %51, i32 0, i32 %.5
  call void @llvm.lifetime.end.p0(i64 2048, ptr nonnull %3) #7
  call void @llvm.lifetime.end.p0(i64 6, ptr nonnull %2) #7
  call void @llvm.lifetime.end.p0(i64 128, ptr nonnull %1) #7
  ret i32 %.9
}